; Function Attrs: mustprogress uwtable
define void @_ZN6colvar6h_bondC2ERKN12colvarmodule4atomES4_dii(ptr noundef nonnull align 8 dereferenceable(1624) %0, ptr noundef nonnull align 8 dereferenceable(120) %1, ptr noundef nonnull align 8 dereferenceable(120) %2, double noundef %3, i32 noundef %4, i32 noundef %5) unnamed_addr #2 align 2 personality ptr @__gxx_personality_v0 {
  tail call void @_ZN6colvar6h_bondC2Ev(ptr noundef nonnull align 8 dereferenceable(1624) %0)
  %7 = getelementptr inbounds nuw i8, ptr %0, i64 1608
  store double %3, ptr %7, align 8, !tbaa !211
  %8 = getelementptr inbounds nuw i8, ptr %0, i64 1616
  store i32 %4, ptr %8, align 8, !tbaa !129
  %9 = getelementptr inbounds nuw i8, ptr %0, i64 1620
  store i32 %5, ptr %9, align 4, !tbaa !131
  %10 = invoke noalias noundef nonnull dereferenceable(1496) ptr @_Znwm(i64 noundef 1496) #19
          to label %11 unwind label %23

11:                                               ; preds = %6
  invoke void @_ZN12colvarmodule10atom_groupC1Ev(ptr noundef nonnull align 8 dereferenceable(1496) %10)
          to label %12 unwind label %25

12:                                               ; preds = %11
  invoke void @_ZN6colvar3cvc19register_atom_groupEPN12colvarmodule10atom_groupE(ptr noundef nonnull align 8 dereferenceable(1608) %0, ptr noundef nonnull %10)
          to label %13 unwind label %23

13:                                               ; preds = %12
  %14 = getelementptr inbounds nuw i8, ptr %0, i64 536
  %15 = load ptr, ptr %14, align 8, !tbaa !127
  %16 = load ptr, ptr %15, align 8, !tbaa !128
  %17 = invoke noundef i32 @_ZN12colvarmodule10atom_group8add_atomERKNS_4atomE(ptr noundef nonnull align 8 dereferenceable(1496) %16, ptr noundef nonnull align 8 dereferenceable(120) %1)
          to label %18 unwind label %23

18:                                               ; preds = %13
  %19 = load ptr, ptr %14, align 8, !tbaa !127
  %20 = load ptr, ptr %19, align 8, !tbaa !128
  %21 = invoke noundef i32 @_ZN12colvarmodule10atom_group8add_atomERKNS_4atomE(ptr noundef nonnull align 8 dereferenceable(1496) %20, ptr noundef nonnull align 8 dereferenceable(120) %2)
          to label %22 unwind label %23

22:                                               ; preds = %18
  ret void

23:                                               ; preds = %18, %13, %12, %6
  %24 = landingpad { ptr, i32 }
          cleanup
  br label %27

25:                                               ; preds = %11
  %26 = landingpad { ptr, i32 }
          cleanup
  tail call void @_ZdlPvm(ptr noundef nonnull %10, i64 noundef 1496) #18
  br label %27

27:                                               ; preds = %25, %23
  %.pn = phi { ptr, i32 } [ %24, %23 ], [ %26, %25 ]
  tail call void @_ZN6colvar3cvcD2Ev(ptr noundef nonnull align 8 dereferenceable(1624) %0) #17
  resume { ptr, i32 } %.pn
}